target datalayout = "e-m:e-p270:32:32-p271:32:32-p272:64:64-i64:64-i128:128-f80:128-n8:16:32:64-S128"
target triple = "x86_64-pc-linux-gnu"

%struct.H5CX_node_t = type { %struct.H5CX_t, ptr }
%struct.H5CX_t = type { i64, ptr, i64, ptr, i64, ptr, i64, ptr, i64, ptr, i64, ptr, i64, i32, i64, i8, ptr, i8, ptr, i8, i32, i8, [3 x double], i8, i64, i8, i32, i8, %struct.H5Z_cb_t, i8, ptr, i8, %struct.H5T_vlen_alloc_info_t, i8, %struct.H5T_conv_cb_t, i8, i32, i8, i8, i8, i32, i8, i8, i32, i8, i8, i32, i8, i32, i8, i64, i8, i8, i8, i8, i8, ptr, i8, ptr, i8, i32, i8, i32, i8, %struct.H5VL_connector_prop_t, i8, ptr, i8 }
%struct.H5Z_cb_t = type { ptr, ptr }
%struct.H5T_vlen_alloc_info_t = type { ptr, ptr, ptr, ptr }
%struct.H5T_conv_cb_t = type { ptr, ptr }
%struct.H5VL_connector_prop_t = type { ptr, ptr }
%struct.H5VL_connector_t = type { ptr, i64, ptr, ptr }

@H5_libinit_g = external global i8, align 1
@H5_libterm_g = external global i8, align 1
@.str = private unnamed_addr constant [98 x i8] c"generated/home/dtcxzyw/WorkSpace/Projects/compilers/llvm-opt-benchmark/bench/hdf5/hdf5/src/H5VL.c\00", align 1
@H5E_FUNC_g = external global i64, align 8
@H5E_CANTINIT_g = external global i64, align 8
@.str.1 = private unnamed_addr constant [30 x i8] c"library initialization failed\00", align 1
@H5VL_init_g = external global i8, align 1
@.str.2 = private unnamed_addr constant [32 x i8] c"interface initialization failed\00", align 1
@H5E_CANTSET_g = external global i64, align 8
@.str.3 = private unnamed_addr constant [22 x i8] c"can't set API context\00", align 1
@H5E_BADTYPE_g = external global i64, align 8
@H5E_VOL_g = external global i64, align 8
@H5E_CANTDEC_g = external global i64, align 8
@__func__.H5VLunregister_connector = private unnamed_addr constant [25 x i8] c"H5VLunregister_connector\00", align 1
@.str.19 = private unnamed_addr constant [23 x i8] c"not a VOL connector ID\00", align 1
@H5VL_NATIVE_conn_g = external global ptr, align 8
@H5E_CANTCOMPARE_g = external global i64, align 8
@.str.20 = private unnamed_addr constant [32 x i8] c"can't compare connector classes\00", align 1
@H5E_BADVALUE_g = external global i64, align 8
@.str.21 = private unnamed_addr constant [54 x i8] c"unregistering the native VOL connector is not allowed\00", align 1
@.str.22 = private unnamed_addr constant [35 x i8] c"unable to unregister VOL connector\00", align 1

; Function Attrs: nounwind uwtable
define i32 @H5VLunregister_connector(i64 noundef %0) #0 {
  %2 = alloca i64, align 8
  %3 = alloca ptr, align 8
  %4 = alloca ptr, align 8
  %5 = alloca i32, align 4
  %6 = alloca i32, align 4
  %7 = alloca %struct.H5CX_node_t, align 8
  %8 = alloca i8, align 1
  %9 = alloca i8, align 1
  store i64 %0, ptr %2, align 8, !tbaa !8
  call void @llvm.lifetime.start.p0(i64 8, ptr %3) #6
  call void @llvm.lifetime.start.p0(i64 8, ptr %4) #6
  call void @llvm.lifetime.start.p0(i64 4, ptr %5) #6
  call void @llvm.lifetime.start.p0(i64 4, ptr %6) #6
  store i32 0, ptr %6, align 4, !tbaa !18
  call void @llvm.lifetime.start.p0(i64 480, ptr %7) #6
  call void @llvm.memset.p0.i64(ptr align 8 %7, i8 0, i64 480, i1 false)
  call void @llvm.lifetime.start.p0(i64 1, ptr %8) #6
  store i8 0, ptr %8, align 1, !tbaa !12
  call void @llvm.lifetime.start.p0(i64 1, ptr %9) #6
  store i8 0, ptr %9, align 1, !tbaa !12
  br label %10

10:                                               ; preds = %1
  %11 = load i8, ptr @H5_libinit_g, align 1, !tbaa !12, !range !14, !noundef !15
  %12 = trunc i8 %11 to i1
  br i1 %12, label %17, label %13

13:                                               ; preds = %10
  %14 = load i8, ptr @H5_libterm_g, align 1, !tbaa !12, !range !14, !noundef !15
  %15 = trunc i8 %14 to i1
  %16 = xor i1 %15, true
  br label %17

17:                                               ; preds = %13, %10
  %18 = phi i1 [ false, %10 ], [ %16, %13 ]
  %19 = xor i1 %18, true
  %20 = xor i1 %19, true
  %21 = zext i1 %20 to i32
  %22 = sext i32 %21 to i64
  %23 = call i64 @llvm.expect.i64(i64 %22, i64 0)
  %24 = icmp ne i64 %23, 0
  br i1 %24, label %25, label %54

25:                                               ; preds = %17
  %26 = call i32 @H5_init_library()
  %27 = icmp slt i32 %26, 0
  %28 = xor i1 %27, true
  %29 = xor i1 %28, true
  %30 = zext i1 %29 to i32
  %31 = sext i32 %30 to i64
  %32 = call i64 @llvm.expect.i64(i64 %31, i64 0)
  %33 = icmp ne i64 %32, 0
  br i1 %33, label %34, label %53

34:                                               ; preds = %25
  br label %35

35:                                               ; preds = %34
  br label %36

36:                                               ; preds = %35
  br label %37

37:                                               ; preds = %36
  %38 = load i64, ptr @H5E_FUNC_g, align 8, !tbaa !8
  %39 = load i64, ptr @H5E_CANTINIT_g, align 8, !tbaa !8
  %40 = call i32 (ptr, ptr, i32, i64, i64, ptr, ...) @H5E_printf_stack(ptr noundef @.str, ptr noundef @__func__.H5VLunregister_connector, i32 noundef 480, i64 noundef %38, i64 noundef %39, ptr noundef @.str.1)
  br label %41

41:                                               ; preds = %37
  br label %42

42:                                               ; preds = %41
  store i8 1, ptr %9, align 1, !tbaa !12
  %43 = load i8, ptr %9, align 1, !tbaa !12, !range !14, !noundef !15
  %44 = trunc i8 %43 to i1
  %45 = zext i1 %44 to i8
  store i8 %45, ptr %9, align 1, !tbaa !12
  br label %46

46:                                               ; preds = %42
  br label %47

47:                                               ; preds = %46
  br label %48

48:                                               ; preds = %47
  store i32 -1, ptr %6, align 4, !tbaa !18
  br label %225

49:                                               ; No predecessors!
  br label %50

50:                                               ; preds = %49
  br label %51

51:                                               ; preds = %50
  br label %52

52:                                               ; preds = %51
  br label %53

53:                                               ; preds = %52, %25
  br label %54

54:                                               ; preds = %53, %17
  %55 = load i8, ptr @H5VL_init_g, align 1, !tbaa !12, !range !14, !noundef !15
  %56 = trunc i8 %55 to i1
  br i1 %56, label %61, label %57

57:                                               ; preds = %54
  %58 = load i8, ptr @H5_libterm_g, align 1, !tbaa !12, !range !14, !noundef !15
  %59 = trunc i8 %58 to i1
  %60 = xor i1 %59, true
  br label %61

61:                                               ; preds = %57, %54
  %62 = phi i1 [ false, %54 ], [ %60, %57 ]
  %63 = xor i1 %62, true
  %64 = xor i1 %63, true
  %65 = zext i1 %64 to i32
  %66 = sext i32 %65 to i64
  %67 = call i64 @llvm.expect.i64(i64 %66, i64 0)
  %68 = icmp ne i64 %67, 0
  br i1 %68, label %69, label %92

69:                                               ; preds = %61
  store i8 1, ptr @H5VL_init_g, align 1, !tbaa !12
  %70 = call i32 @H5VL__init_package()
  %71 = icmp slt i32 %70, 0
  br i1 %71, label %72, label %91

72:                                               ; preds = %69
  store i8 0, ptr @H5VL_init_g, align 1, !tbaa !12
  br label %73

73:                                               ; preds = %72
  br label %74

74:                                               ; preds = %73
  br label %75

75:                                               ; preds = %74
  %76 = load i64, ptr @H5E_FUNC_g, align 8, !tbaa !8
  %77 = load i64, ptr @H5E_CANTINIT_g, align 8, !tbaa !8
  %78 = call i32 (ptr, ptr, i32, i64, i64, ptr, ...) @H5E_printf_stack(ptr noundef @.str, ptr noundef @__func__.H5VLunregister_connector, i32 noundef 480, i64 noundef %76, i64 noundef %77, ptr noundef @.str.2)
  br label %79

79:                                               ; preds = %75
  br label %80

80:                                               ; preds = %79
  store i8 1, ptr %9, align 1, !tbaa !12
  %81 = load i8, ptr %9, align 1, !tbaa !12, !range !14, !noundef !15
  %82 = trunc i8 %81 to i1
  %83 = zext i1 %82 to i8
  store i8 %83, ptr %9, align 1, !tbaa !12
  br label %84

84:                                               ; preds = %80
  br label %85

85:                                               ; preds = %84
  br label %86

86:                                               ; preds = %85
  store i32 -1, ptr %6, align 4, !tbaa !18
  br label %225

87:                                               ; No predecessors!
  br label %88

88:                                               ; preds = %87
  br label %89

89:                                               ; preds = %88
  br label %90

90:                                               ; preds = %89
  br label %91

91:                                               ; preds = %90, %69
  br label %92

92:                                               ; preds = %91, %61
  br label %93

93:                                               ; preds = %92
  br label %94

94:                                               ; preds = %93
  br label %95

95:                                               ; preds = %94
  %96 = call i32 @H5CX_push(ptr noundef %7)
  %97 = icmp slt i32 %96, 0
  %98 = xor i1 %97, true
  %99 = xor i1 %98, true
  %100 = zext i1 %99 to i32
  %101 = sext i32 %100 to i64
  %102 = call i64 @llvm.expect.i64(i64 %101, i64 0)
  %103 = icmp ne i64 %102, 0
  br i1 %103, label %104, label %123

104:                                              ; preds = %95
  br label %105

105:                                              ; preds = %104
  br label %106

106:                                              ; preds = %105
  br label %107

107:                                              ; preds = %106
  %108 = load i64, ptr @H5E_FUNC_g, align 8, !tbaa !8
  %109 = load i64, ptr @H5E_CANTSET_g, align 8, !tbaa !8
  %110 = call i32 (ptr, ptr, i32, i64, i64, ptr, ...) @H5E_printf_stack(ptr noundef @.str, ptr noundef @__func__.H5VLunregister_connector, i32 noundef 480, i64 noundef %108, i64 noundef %109, ptr noundef @.str.3)
  br label %111

111:                                              ; preds = %107
  br label %112

112:                                              ; preds = %111
  store i8 1, ptr %9, align 1, !tbaa !12
  %113 = load i8, ptr %9, align 1, !tbaa !12, !range !14, !noundef !15
  %114 = trunc i8 %113 to i1
  %115 = zext i1 %114 to i8
  store i8 %115, ptr %9, align 1, !tbaa !12
  br label %116

116:                                              ; preds = %112
  br label %117

117:                                              ; preds = %116
  br label %118

118:                                              ; preds = %117
  store i32 -1, ptr %6, align 4, !tbaa !18
  br label %225

119:                                              ; No predecessors!
  br label %120

120:                                              ; preds = %119
  br label %121

121:                                              ; preds = %120
  br label %122

122:                                              ; preds = %121
  br label %124

123:                                              ; preds = %95
  store i8 1, ptr %8, align 1, !tbaa !12
  br label %124

124:                                              ; preds = %123, %122
  br label %125

125:                                              ; preds = %124
  br label %126

126:                                              ; preds = %125
  %127 = call i32 @H5E_clear_stack()
  %128 = load i64, ptr %2, align 8, !tbaa !8
  %129 = call ptr @H5I_object_verify(i64 noundef %128, i32 noundef 9)
  store ptr %129, ptr %4, align 8, !tbaa !10
  %130 = icmp eq ptr null, %129
  br i1 %130, label %131, label %150

131:                                              ; preds = %126
  br label %132

132:                                              ; preds = %131
  br label %133

133:                                              ; preds = %132
  br label %134

134:                                              ; preds = %133
  %135 = load i64, ptr @H5E_VOL_g, align 8, !tbaa !8
  %136 = load i64, ptr @H5E_BADTYPE_g, align 8, !tbaa !8
  %137 = call i32 (ptr, ptr, i32, i64, i64, ptr, ...) @H5E_printf_stack(ptr noundef @.str, ptr noundef @__func__.H5VLunregister_connector, i32 noundef 484, i64 noundef %135, i64 noundef %136, ptr noundef @.str.19)
  br label %138

138:                                              ; preds = %134
  br label %139

139:                                              ; preds = %138
  store i8 1, ptr %9, align 1, !tbaa !12
  %140 = load i8, ptr %9, align 1, !tbaa !12, !range !14, !noundef !15
  %141 = trunc i8 %140 to i1
  %142 = zext i1 %141 to i8
  store i8 %142, ptr %9, align 1, !tbaa !12
  br label %143

143:                                              ; preds = %139
  br label %144

144:                                              ; preds = %143
  br label %145

145:                                              ; preds = %144
  store i32 -1, ptr %6, align 4, !tbaa !18
  br label %225

146:                                              ; No predecessors!
  br label %147

147:                                              ; preds = %146
  br label %148

148:                                              ; preds = %147
  br label %149

149:                                              ; preds = %148
  br label %150

150:                                              ; preds = %149, %126
  %151 = load ptr, ptr @H5VL_NATIVE_conn_g, align 8, !tbaa !10
  store ptr %151, ptr %3, align 8, !tbaa !10
  %152 = load ptr, ptr %4, align 8, !tbaa !10
  %153 = getelementptr inbounds nuw %struct.H5VL_connector_t, ptr %152, i32 0, i32 0
  %154 = load ptr, ptr %153, align 8, !tbaa !24
  %155 = load ptr, ptr %3, align 8, !tbaa !10
  %156 = getelementptr inbounds nuw %struct.H5VL_connector_t, ptr %155, i32 0, i32 0
  %157 = load ptr, ptr %156, align 8, !tbaa !24
  %158 = call i32 @H5VL_cmp_connector_cls(ptr noundef %5, ptr noundef %154, ptr noundef %157)
  %159 = icmp slt i32 %158, 0
  br i1 %159, label %160, label %179

160:                                              ; preds = %150
  br label %161

161:                                              ; preds = %160
  br label %162

162:                                              ; preds = %161
  br label %163

163:                                              ; preds = %162
  %164 = load i64, ptr @H5E_VOL_g, align 8, !tbaa !8
  %165 = load i64, ptr @H5E_CANTCOMPARE_g, align 8, !tbaa !8
  %166 = call i32 (ptr, ptr, i32, i64, i64, ptr, ...) @H5E_printf_stack(ptr noundef @.str, ptr noundef @__func__.H5VLunregister_connector, i32 noundef 489, i64 noundef %164, i64 noundef %165, ptr noundef @.str.20)
  br label %167

167:                                              ; preds = %163
  br label %168

168:                                              ; preds = %167
  store i8 1, ptr %9, align 1, !tbaa !12
  %169 = load i8, ptr %9, align 1, !tbaa !12, !range !14, !noundef !15
  %170 = trunc i8 %169 to i1
  %171 = zext i1 %170 to i8
  store i8 %171, ptr %9, align 1, !tbaa !12
  br label %172

172:                                              ; preds = %168
  br label %173

173:                                              ; preds = %172
  br label %174

174:                                              ; preds = %173
  store i32 -1, ptr %6, align 4, !tbaa !18
  br label %225

175:                                              ; No predecessors!
  br label %176

176:                                              ; preds = %175
  br label %177

177:                                              ; preds = %176
  br label %178

178:                                              ; preds = %177
  br label %179

179:                                              ; preds = %178, %150
  %180 = load i32, ptr %5, align 4, !tbaa !18
  %181 = icmp eq i32 0, %180
  br i1 %181, label %182, label %201

182:                                              ; preds = %179
  br label %183

183:                                              ; preds = %182
  br label %184

184:                                              ; preds = %183
  br label %185

185:                                              ; preds = %184
  %186 = load i64, ptr @H5E_VOL_g, align 8, !tbaa !8
  %187 = load i64, ptr @H5E_BADVALUE_g, align 8, !tbaa !8
  %188 = call i32 (ptr, ptr, i32, i64, i64, ptr, ...) @H5E_printf_stack(ptr noundef @.str, ptr noundef @__func__.H5VLunregister_connector, i32 noundef 491, i64 noundef %186, i64 noundef %187, ptr noundef @.str.21)
  br label %189

189:                                              ; preds = %185
  br label %190

190:                                              ; preds = %189
  store i8 1, ptr %9, align 1, !tbaa !12
  %191 = load i8, ptr %9, align 1, !tbaa !12, !range !14, !noundef !15
  %192 = trunc i8 %191 to i1
  %193 = zext i1 %192 to i8
  store i8 %193, ptr %9, align 1, !tbaa !12
  br label %194

194:                                              ; preds = %190
  br label %195

195:                                              ; preds = %194
  br label %196

196:                                              ; preds = %195
  store i32 -1, ptr %6, align 4, !tbaa !18
  br label %225

197:                                              ; No predecessors!
  br label %198

198:                                              ; preds = %197
  br label %199

199:                                              ; preds = %198
  br label %200

200:                                              ; preds = %199
  br label %201

201:                                              ; preds = %200, %179
  %202 = load i64, ptr %2, align 8, !tbaa !8
  %203 = call i32 @H5I_dec_app_ref(i64 noundef %202)
  %204 = icmp slt i32 %203, 0
  br i1 %204, label %205, label %224

205:                                              ; preds = %201
  br label %206

206:                                              ; preds = %205
  br label %207

207:                                              ; preds = %206
  br label %208

208:                                              ; preds = %207
  %209 = load i64, ptr @H5E_VOL_g, align 8, !tbaa !8
  %210 = load i64, ptr @H5E_CANTDEC_g, align 8, !tbaa !8
  %211 = call i32 (ptr, ptr, i32, i64, i64, ptr, ...) @H5E_printf_stack(ptr noundef @.str, ptr noundef @__func__.H5VLunregister_connector, i32 noundef 495, i64 noundef %209, i64 noundef %210, ptr noundef @.str.22)
  br label %212

212:                                              ; preds = %208
  br label %213

213:                                              ; preds = %212
  store i8 1, ptr %9, align 1, !tbaa !12
  %214 = load i8, ptr %9, align 1, !tbaa !12, !range !14, !noundef !15
  %215 = trunc i8 %214 to i1
  %216 = zext i1 %215 to i8
  store i8 %216, ptr %9, align 1, !tbaa !12
  br label %217

217:                                              ; preds = %213
  br label %218

218:                                              ; preds = %217
  br label %219

219:                                              ; preds = %218
  store i32 -1, ptr %6, align 4, !tbaa !18
  br label %225

220:                                              ; No predecessors!
  br label %221

221:                                              ; preds = %220
  br label %222

222:                                              ; preds = %221
  br label %223

223:                                              ; preds = %222
  br label %224

224:                                              ; preds = %223, %201
  br label %225

225:                                              ; preds = %224, %219, %196, %174, %145, %118, %86, %48
  %226 = load i8, ptr %8, align 1, !tbaa !12, !range !14, !noundef !15
  %227 = trunc i8 %226 to i1
  %228 = xor i1 %227, true
  %229 = xor i1 %228, true
  %230 = zext i1 %229 to i32
  %231 = sext i32 %230 to i64
  %232 = call i64 @llvm.expect.i64(i64 %231, i64 1)
  %233 = icmp ne i64 %232, 0
  br i1 %233, label %234, label %236

234:                                              ; preds = %225
  %235 = call i32 @H5CX_pop(i1 noundef zeroext true)
  store i8 0, ptr %8, align 1, !tbaa !12
  br label %236

236:                                              ; preds = %234, %225
  %237 = load i8, ptr %9, align 1, !tbaa !12, !range !14, !noundef !15
  %238 = trunc i8 %237 to i1
  %239 = xor i1 %238, true
  %240 = xor i1 %239, true
  %241 = zext i1 %240 to i32
  %242 = sext i32 %241 to i64
  %243 = call i64 @llvm.expect.i64(i64 %242, i64 0)
  %244 = icmp ne i64 %243, 0
  br i1 %244, label %245, label %247

245:                                              ; preds = %236
  %246 = call i32 @H5E_dump_api_stack()
  br label %247

247:                                              ; preds = %245, %236
  %248 = load i32, ptr %6, align 4, !tbaa !18
  call void @llvm.lifetime.end.p0(i64 1, ptr %9) #6
  call void @llvm.lifetime.end.p0(i64 1, ptr %8) #6
  call void @llvm.lifetime.end.p0(i64 480, ptr %7) #6
  call void @llvm.lifetime.end.p0(i64 4, ptr %6) #6
  call void @llvm.lifetime.end.p0(i64 4, ptr %5) #6
  call void @llvm.lifetime.end.p0(i64 8, ptr %4) #6
  call void @llvm.lifetime.end.p0(i64 8, ptr %3) #6
  ret i32 %248
}