; Function Attrs: nounwind uwtable
define range(i32 -1, 1) i32 @H5VLunregister_connector(i64 noundef %0) local_unnamed_addr #0 {
  %2 = alloca i32, align 4
  %3 = alloca %struct.H5CX_node_t, align 8
  call void @llvm.lifetime.start.p0(i64 4, ptr nonnull %2) #4
  call void @llvm.lifetime.start.p0(i64 480, ptr nonnull %3) #4
  call void @llvm.memset.p0.i64(ptr noundef nonnull align 8 dereferenceable(480) %3, i8 0, i64 480, i1 false)
  %4 = load i8, ptr @H5_libinit_g, align 1, !tbaa !3, !range !7, !noundef !8
  %5 = trunc nuw i8 %4 to i1
  %6 = load i8, ptr @H5_libterm_g, align 1, !range !7
  %7 = trunc nuw i8 %6 to i1
  %8 = select i1 %5, i1 true, i1 %7
  br i1 %8, label %16, label %9, !prof !9

9:                                                ; preds = %1
  %10 = tail call i32 @H5_init_library() #4
  %11 = icmp slt i32 %10, 0
  br i1 %11, label %12, label %._crit_edge, !prof !10

._crit_edge:                                      ; preds = %9
  %.pre = load i8, ptr @H5_libterm_g, align 1, !range !7
  br label %16

12:                                               ; preds = %9
  %13 = load i64, ptr @H5E_FUNC_g, align 8, !tbaa !11
  %14 = load i64, ptr @H5E_CANTINIT_g, align 8, !tbaa !11
  %15 = tail call i32 (ptr, ptr, i32, i64, i64, ptr, ...) @H5E_printf_stack(ptr noundef nonnull @.str, ptr noundef nonnull @__func__.H5VLunregister_connector, i32 noundef 480, i64 noundef %13, i64 noundef %14, ptr noundef nonnull @.str.1) #4
  br label %.thread24

16:                                               ; preds = %._crit_edge, %1
  %17 = phi i8 [ %.pre, %._crit_edge ], [ %6, %1 ]
  %18 = load i8, ptr @H5VL_init_g, align 1, !tbaa !3, !range !7, !noundef !8
  %19 = trunc nuw i8 %18 to i1
  %20 = trunc nuw i8 %17 to i1
  %21 = select i1 %19, i1 true, i1 %20
  br i1 %21, label %29, label %22, !prof !9

22:                                               ; preds = %16
  store i8 1, ptr @H5VL_init_g, align 1, !tbaa !3
  %23 = tail call i32 @H5VL__init_package() #4
  %24 = icmp slt i32 %23, 0
  br i1 %24, label %25, label %29, !prof !16

25:                                               ; preds = %22
  store i8 0, ptr @H5VL_init_g, align 1, !tbaa !3
  %26 = load i64, ptr @H5E_FUNC_g, align 8, !tbaa !11
  %27 = load i64, ptr @H5E_CANTINIT_g, align 8, !tbaa !11
  %28 = tail call i32 (ptr, ptr, i32, i64, i64, ptr, ...) @H5E_printf_stack(ptr noundef nonnull @.str, ptr noundef nonnull @__func__.H5VLunregister_connector, i32 noundef 480, i64 noundef %26, i64 noundef %27, ptr noundef nonnull @.str.2) #4
  br label %.thread24

29:                                               ; preds = %16, %22
  %30 = call i32 @H5CX_push(ptr noundef nonnull %3) #4
  %31 = icmp slt i32 %30, 0
  br i1 %31, label %32, label %36, !prof !10

32:                                               ; preds = %29
  %33 = load i64, ptr @H5E_FUNC_g, align 8, !tbaa !11
  %34 = load i64, ptr @H5E_CANTSET_g, align 8, !tbaa !11
  %35 = call i32 (ptr, ptr, i32, i64, i64, ptr, ...) @H5E_printf_stack(ptr noundef nonnull @.str, ptr noundef nonnull @__func__.H5VLunregister_connector, i32 noundef 480, i64 noundef %33, i64 noundef %34, ptr noundef nonnull @.str.3) #4
  br label %.thread24

36:                                               ; preds = %29
  %37 = call i32 @H5E_clear_stack() #4
  %38 = call ptr @H5I_object_verify(i64 noundef %0, i32 noundef 9) #4
  %39 = icmp eq ptr %38, null
  br i1 %39, label %40, label %44, !prof !17

40:                                               ; preds = %36
  %41 = load i64, ptr @H5E_VOL_g, align 8, !tbaa !11
  %42 = load i64, ptr @H5E_BADTYPE_g, align 8, !tbaa !11
  %43 = call i32 (ptr, ptr, i32, i64, i64, ptr, ...) @H5E_printf_stack(ptr noundef nonnull @.str, ptr noundef nonnull @__func__.H5VLunregister_connector, i32 noundef 484, i64 noundef %41, i64 noundef %42, ptr noundef nonnull @.str.19) #4
  br label %.thread30

44:                                               ; preds = %36
  %45 = load ptr, ptr @H5VL_NATIVE_conn_g, align 8, !tbaa !23
  %46 = load ptr, ptr %38, align 8, !tbaa !24
  %47 = load ptr, ptr %45, align 8, !tbaa !24
  %48 = call i32 @H5VL_cmp_connector_cls(ptr noundef nonnull %2, ptr noundef %46, ptr noundef %47) #4
  %49 = icmp slt i32 %48, 0
  br i1 %49, label %50, label %54, !prof !17

50:                                               ; preds = %44
  %51 = load i64, ptr @H5E_VOL_g, align 8, !tbaa !11
  %52 = load i64, ptr @H5E_CANTCOMPARE_g, align 8, !tbaa !11
  %53 = call i32 (ptr, ptr, i32, i64, i64, ptr, ...) @H5E_printf_stack(ptr noundef nonnull @.str, ptr noundef nonnull @__func__.H5VLunregister_connector, i32 noundef 489, i64 noundef %51, i64 noundef %52, ptr noundef nonnull @.str.20) #4
  br label %.thread30

54:                                               ; preds = %44
  %55 = load i32, ptr %2, align 4, !tbaa !27
  %56 = icmp eq i32 %55, 0
  br i1 %56, label %57, label %61, !prof !17

57:                                               ; preds = %54
  %58 = load i64, ptr @H5E_VOL_g, align 8, !tbaa !11
  %59 = load i64, ptr @H5E_BADVALUE_g, align 8, !tbaa !11
  %60 = call i32 (ptr, ptr, i32, i64, i64, ptr, ...) @H5E_printf_stack(ptr noundef nonnull @.str, ptr noundef nonnull @__func__.H5VLunregister_connector, i32 noundef 491, i64 noundef %58, i64 noundef %59, ptr noundef nonnull @.str.21) #4
  br label %.thread30

61:                                               ; preds = %54
  %62 = call i32 @H5I_dec_app_ref(i64 noundef %0) #4
  %63 = icmp slt i32 %62, 0
  br i1 %63, label %64, label %69, !prof !17

64:                                               ; preds = %61
  %65 = load i64, ptr @H5E_VOL_g, align 8, !tbaa !11
  %66 = load i64, ptr @H5E_CANTDEC_g, align 8, !tbaa !11
  %67 = call i32 (ptr, ptr, i32, i64, i64, ptr, ...) @H5E_printf_stack(ptr noundef nonnull @.str, ptr noundef nonnull @__func__.H5VLunregister_connector, i32 noundef 495, i64 noundef %65, i64 noundef %66, ptr noundef nonnull @.str.22) #4
  br label %.thread30

.thread30:                                        ; preds = %64, %57, %50, %40
  %68 = call i32 @H5CX_pop(i1 noundef zeroext true) #4
  br label %.thread24

69:                                               ; preds = %61
  %70 = call i32 @H5CX_pop(i1 noundef zeroext true) #4
  br label %72

.thread24:                                        ; preds = %32, %25, %12, %.thread30
  %71 = call i32 @H5E_dump_api_stack() #4
  br label %72

72:                                               ; preds = %69, %.thread24
  %.0141927 = phi i32 [ -1, %.thread24 ], [ 0, %69 ]
  call void @llvm.lifetime.end.p0(i64 480, ptr nonnull %3) #4
  call void @llvm.lifetime.end.p0(i64 4, ptr nonnull %2) #4
  ret i32 %.0141927
}